000000000000373d <_ZN18polymorphism_tests14TestRuntimeFMAEm.cold>:
    373d:	48 8b 7d c0          	mov    -0x40(%rbp),%rdi
    3741:	4c 39 e7             	cmp    %r12,%rdi
    3744:	74 18                	je     375e <_ZN18polymorphism_tests14TestRuntimeFMAEm.cold+0x21>
    3746:	48 8b 45 d0          	mov    -0x30(%rbp),%rax
    374a:	48 8d 70 01          	lea    0x1(%rax),%rsi
    374e:	c5 f8 77             	vzeroupper
    3751:	e8 6a fb ff ff       	call   32c0 <_ZdlPvm@plt>
    3756:	48 89 df             	mov    %rbx,%rdi
    3759:	e8 b2 fc ff ff       	call   3410 <_Unwind_Resume@plt>
    375e:	c5 f8 77             	vzeroupper
    3761:	eb f3                	jmp    3756 <_ZN18polymorphism_tests14TestRuntimeFMAEm.cold+0x19>

0000000000003763 <_ZN18polymorphism_tests20TestRuntimeExpensiveEm.cold>:
    3763:	48 8b 7d c0          	mov    -0x40(%rbp),%rdi
    3767:	4c 39 e7             	cmp    %r12,%rdi
    376a:	74 18                	je     3784 <_ZN18polymorphism_tests20TestRuntimeExpensiveEm.cold+0x21>
    376c:	48 8b 45 d0          	mov    -0x30(%rbp),%rax
    3770:	48 8d 70 01          	lea    0x1(%rax),%rsi
    3774:	c5 f8 77             	vzeroupper
    3777:	e8 44 fb ff ff       	call   32c0 <_ZdlPvm@plt>
    377c:	48 89 df             	mov    %rbx,%rdi
    377f:	e8 8c fc ff ff       	call   3410 <_Unwind_Resume@plt>
    3784:	c5 f8 77             	vzeroupper
    3787:	eb f3                	jmp    377c <_ZN18polymorphism_tests20TestRuntimeExpensiveEm.cold+0x19>

0000000000003789 <_ZN18polymorphism_tests11TestCRTPFMAEm.cold>:
    3789:	48 8b 7d c0          	mov    -0x40(%rbp),%rdi
    378d:	4c 39 e7             	cmp    %r12,%rdi
    3790:	74 18                	je     37aa <_ZN18polymorphism_tests11TestCRTPFMAEm.cold+0x21>
    3792:	48 8b 45 d0          	mov    -0x30(%rbp),%rax
    3796:	48 8d 70 01          	lea    0x1(%rax),%rsi
    379a:	c5 f8 77             	vzeroupper
    379d:	e8 1e fb ff ff       	call   32c0 <_ZdlPvm@plt>
    37a2:	48 89 df             	mov    %rbx,%rdi
    37a5:	e8 66 fc ff ff       	call   3410 <_Unwind_Resume@plt>
    37aa:	c5 f8 77             	vzeroupper
    37ad:	eb f3                	jmp    37a2 <_ZN18polymorphism_tests11TestCRTPFMAEm.cold+0x19>

00000000000037af <_ZN18polymorphism_tests17TestCRTPExpensiveEm.cold>:
    37af:	48 8b 7d c0          	mov    -0x40(%rbp),%rdi
    37b3:	4c 39 e7             	cmp    %r12,%rdi
    37b6:	74 18                	je     37d0 <_ZN18polymorphism_tests17TestCRTPExpensiveEm.cold+0x21>
    37b8:	48 8b 45 d0          	mov    -0x30(%rbp),%rax
    37bc:	48 8d 70 01          	lea    0x1(%rax),%rsi
    37c0:	c5 f8 77             	vzeroupper
    37c3:	e8 f8 fa ff ff       	call   32c0 <_ZdlPvm@plt>
    37c8:	48 89 df             	mov    %rbx,%rdi
    37cb:	e8 40 fc ff ff       	call   3410 <_Unwind_Resume@plt>
    37d0:	c5 f8 77             	vzeroupper
    37d3:	eb f3                	jmp    37c8 <_ZN18polymorphism_tests17TestCRTPExpensiveEm.cold+0x19>

00000000000037d5 <_ZN18polymorphism_tests15TestConceptsFMAEm.cold>:
    37d5:	48 8b 7d c0          	mov    -0x40(%rbp),%rdi
    37d9:	4c 39 e7             	cmp    %r12,%rdi
    37dc:	74 18                	je     37f6 <_ZN18polymorphism_tests15TestConceptsFMAEm.cold+0x21>
    37de:	48 8b 45 d0          	mov    -0x30(%rbp),%rax
    37e2:	48 8d 70 01          	lea    0x1(%rax),%rsi
    37e6:	c5 f8 77             	vzeroupper
    37e9:	e8 d2 fa ff ff       	call   32c0 <_ZdlPvm@plt>
    37ee:	48 89 df             	mov    %rbx,%rdi
    37f1:	e8 1a fc ff ff       	call   3410 <_Unwind_Resume@plt>
    37f6:	c5 f8 77             	vzeroupper
    37f9:	eb f3                	jmp    37ee <_ZN18polymorphism_tests15TestConceptsFMAEm.cold+0x19>

00000000000037fb <_ZN18polymorphism_tests21TestConceptsExpensiveEm.cold>:
    37fb:	48 8b 7d c0          	mov    -0x40(%rbp),%rdi
    37ff:	4c 39 e7             	cmp    %r12,%rdi
    3802:	74 18                	je     381c <_ZN18polymorphism_tests21TestConceptsExpensiveEm.cold+0x21>
    3804:	48 8b 45 d0          	mov    -0x30(%rbp),%rax
    3808:	48 8d 70 01          	lea    0x1(%rax),%rsi
    380c:	c5 f8 77             	vzeroupper
--
0000000000004210 <_GLOBAL__sub_I__ZN18polymorphism_tests14TestRuntimeFMAEm>:
    4210:	55                   	push   %rbp
    4211:	48 89 e5             	mov    %rsp,%rbp
    4214:	53                   	push   %rbx
    4215:	48 83 ec 08          	sub    $0x8,%rsp
    4219:	ff 15 99 ad 00 00    	call   *0xad99(%rip)        # efb8 <mcount@GLIBC_2.2.5>
    421f:	48 8d 1d 5e b2 00 00 	lea    0xb25e(%rip),%rbx        # f484 <_ZStL8__ioinit>
    4226:	48 89 df             	mov    %rbx,%rdi
    4229:	e8 52 f1 ff ff       	call   3380 <_ZNSt8ios_base4InitC1Ev@plt>
    422e:	48 8b 3d ab ad 00 00 	mov    0xadab(%rip),%rdi        # efe0 <_ZNSt8ios_base4InitD1Ev@GLIBCXX_3.4>
    4235:	48 83 c4 08          	add    $0x8,%rsp
    4239:	48 89 de             	mov    %rbx,%rsi
    423c:	48 8d 15 d5 af 00 00 	lea    0xafd5(%rip),%rdx        # f218 <__dso_handle>
    4243:	5b                   	pop    %rbx
    4244:	5d                   	pop    %rbp
    4245:	e9 36 f0 ff ff       	jmp    3280 <__cxa_atexit@plt>
    424a:	66 0f 1f 44 00 00    	nopw   0x0(%rax,%rax,1)

0000000000004250 <_GLOBAL__sub_I__ZN11test_runner14GetTestCaseMapB5cxx11Ev>:
    4250:	55                   	push   %rbp
    4251:	48 89 e5             	mov    %rsp,%rbp
    4254:	53                   	push   %rbx
    4255:	48 83 ec 08          	sub    $0x8,%rsp
    4259:	ff 15 59 ad 00 00    	call   *0xad59(%rip)        # efb8 <mcount@GLIBC_2.2.5>
    425f:	48 8d 1d 92 b2 00 00 	lea    0xb292(%rip),%rbx        # f4f8 <_ZStL8__ioinit>
    4266:	48 89 df             	mov    %rbx,%rdi
    4269:	e8 12 f1 ff ff       	call   3380 <_ZNSt8ios_base4InitC1Ev@plt>
    426e:	48 8b 3d 6b ad 00 00 	mov    0xad6b(%rip),%rdi        # efe0 <_ZNSt8ios_base4InitD1Ev@GLIBCXX_3.4>
    4275:	48 83 c4 08          	add    $0x8,%rsp
    4279:	48 89 de             	mov    %rbx,%rsi
    427c:	48 8d 15 95 af 00 00 	lea    0xaf95(%rip),%rdx        # f218 <__dso_handle>
    4283:	5b                   	pop    %rbx
    4284:	5d                   	pop    %rbp
    4285:	e9 f6 ef ff ff       	jmp    3280 <__cxa_atexit@plt>
    428a:	66 0f 1f 44 00 00    	nopw   0x0(%rax,%rax,1)

0000000000004290 <_start>:
    4290:	31 ed                	xor    %ebp,%ebp
    4292:	49 89 d1             	mov    %rdx,%r9
    4295:	5e                   	pop    %rsi
    4296:	48 89 e2             	mov    %rsp,%rdx
    4299:	48 83 e4 f0          	and    $0xfffffffffffffff0,%rsp
    429d:	50                   	push   %rax
    429e:	54                   	push   %rsp
    429f:	45 31 c0             	xor    %r8d,%r8d
    42a2:	31 c9                	xor    %ecx,%ecx
    42a4:	48 8d 3d d5 fd ff ff 	lea    -0x22b(%rip),%rdi        # 4080 <main>
    42ab:	ff 15 ff ac 00 00    	call   *0xacff(%rip)        # efb0 <__libc_start_main@GLIBC_2.34>
    42b1:	f4                   	hlt
    42b2:	66 2e 0f 1f 84 00 00 	cs nopw 0x0(%rax,%rax,1)
    42b9:	00 00 00 
    42bc:	0f 1f 40 00          	nopl   0x0(%rax)

00000000000042c0 <deregister_tm_clones>:
    42c0:	48 8d 3d 69 af 00 00 	lea    0xaf69(%rip),%rdi        # f230 <__TMC_END__>
    42c7:	48 8d 05 62 af 00 00 	lea    0xaf62(%rip),%rax        # f230 <__TMC_END__>
    42ce:	48 39 f8             	cmp    %rdi,%rax
    42d1:	74 15                	je     42e8 <deregister_tm_clones+0x28>
    42d3:	48 8b 05 ee ac 00 00 	mov    0xacee(%rip),%rax        # efc8 <_ITM_deregisterTMCloneTable@Base>
    42da:	48 85 c0             	test   %rax,%rax
    42dd:	74 09                	je     42e8 <deregister_tm_clones+0x28>
--
0000000000007620 <_ZN18polymorphism_tests14TestRuntimeFMAEm>:
    7620:	55                   	push   %rbp
    7621:	48 89 e5             	mov    %rsp,%rbp
    7624:	41 55                	push   %r13
    7626:	41 54                	push   %r12
    7628:	53                   	push   %rbx
    7629:	48 83 ec 38          	sub    $0x38,%rsp
    762d:	ff 15 85 79 00 00    	call   *0x7985(%rip)        # efb8 <mcount@GLIBC_2.2.5>
    7633:	48 8d 05 be 73 00 00 	lea    0x73be(%rip),%rax        # e9f8 <_ZTVN20runtime_polymorphism7PolyFMAE+0x10>
    763a:	48 89 fb             	mov    %rdi,%rbx
    763d:	4c 8d 65 d0          	lea    -0x30(%rbp),%r12
    7641:	bf 11 00 00 00       	mov    $0x11,%edi
    7646:	48 89 45 b8          	mov    %rax,-0x48(%rbp)
    764a:	4c 89 65 c0          	mov    %r12,-0x40(%rbp)
    764e:	4c 8d 6d c0          	lea    -0x40(%rbp),%r13
    7652:	e8 59 bc ff ff       	call   32b0 <_Znwm@plt>
    7657:	48 8d 55 b8          	lea    -0x48(%rbp),%rdx
    765b:	48 89 de             	mov    %rbx,%rsi
    765e:	4c 89 ef             	mov    %r13,%rdi
    7661:	c5 f9 6f 05 77 4f 00 	vmovdqa 0x4f77(%rip),%xmm0        # c5e0 <_ZTSN20runtime_polymorphism13PolyExpensiveE+0xa0>
    7668:	00 
    7669:	c6 40 10 00          	movb   $0x0,0x10(%rax)
    766d:	48 89 45 c0          	mov    %rax,-0x40(%rbp)
    7671:	c5 fa 7f 00          	vmovdqu %xmm0,(%rax)
    7675:	48 c7 45 d0 10 00 00 	movq   $0x10,-0x30(%rbp)
    767c:	00 
    767d:	48 c7 45 c8 10 00 00 	movq   $0x10,-0x38(%rbp)
    7684:	00 
    7685:	e8 46 f1 ff ff       	call   67d0 <_ZN20runtime_polymorphism23TestRuntimePolymorphismERKNSt7__cxx1112basic_stringIcSt11char_traitsIcESaIcEEEmRNS_11RuntimeBaseE>
    768a:	48 8b 7d c0          	mov    -0x40(%rbp),%rdi
    768e:	4c 39 e7             	cmp    %r12,%rdi
    7691:	74 0d                	je     76a0 <_ZN18polymorphism_tests14TestRuntimeFMAEm+0x80>
    7693:	48 8b 45 d0          	mov    -0x30(%rbp),%rax
    7697:	48 8d 70 01          	lea    0x1(%rax),%rsi
    769b:	e8 20 bc ff ff       	call   32c0 <_ZdlPvm@plt>
    76a0:	48 83 c4 38          	add    $0x38,%rsp
    76a4:	5b                   	pop    %rbx
    76a5:	41 5c                	pop    %r12
    76a7:	41 5d                	pop    %r13
    76a9:	5d                   	pop    %rbp
    76aa:	c3                   	ret
    76ab:	48 89 c3             	mov    %rax,%rbx
    76ae:	e9 8a c0 ff ff       	jmp    373d <_ZN18polymorphism_tests14TestRuntimeFMAEm.cold>
    76b3:	66 66 2e 0f 1f 84 00 	data16 cs nopw 0x0(%rax,%rax,1)
    76ba:	00 00 00 00 
    76be:	66 90                	xchg   %ax,%ax

00000000000076c0 <_ZN18polymorphism_tests20TestRuntimeExpensiveEm>:
    76c0:	55                   	push   %rbp
    76c1:	48 89 e5             	mov    %rsp,%rbp
    76c4:	41 55                	push   %r13
    76c6:	41 54                	push   %r12
    76c8:	53                   	push   %rbx
    76c9:	48 83 ec 38          	sub    $0x38,%rsp
    76cd:	ff 15 e5 78 00 00    	call   *0x78e5(%rip)        # efb8 <mcount@GLIBC_2.2.5>
    76d3:	48 8d 05 46 73 00 00 	lea    0x7346(%rip),%rax        # ea20 <_ZTVN20runtime_polymorphism13PolyExpensiveE+0x10>
    76da:	48 89 fb             	mov    %rdi,%rbx
    76dd:	4c 8d 65 d0          	lea    -0x30(%rbp),%r12
    76e1:	bf 17 00 00 00       	mov    $0x17,%edi
    76e6:	48 89 45 b8          	mov    %rax,-0x48(%rbp)
    76ea:	4c 89 65 c0          	mov    %r12,-0x40(%rbp)
    76ee:	4c 8d 6d c0          	lea    -0x40(%rbp),%r13
    76f2:	e8 b9 bb ff ff       	call   32b0 <_Znwm@plt>
    76f7:	48 8d 55 b8          	lea    -0x48(%rbp),%rdx
    76fb:	48 89 de             	mov    %rbx,%rsi
    76fe:	4c 89 ef             	mov    %r13,%rdi
    7701:	c5 f9 6f 05 e7 4e 00 	vmovdqa 0x4ee7(%rip),%xmm0        # c5f0 <_ZTSN20runtime_polymorphism13PolyExpensiveE+0xb0>
    7708:	00 
    7709:	c6 40 16 00          	movb   $0x0,0x16(%rax)
    770d:	48 b9 75 74 61 74 69 	movabs $0x3a6e6f6974617475,%rcx
    7714:	6f 6e 3a 
    7717:	48 89 45 c0          	mov    %rax,-0x40(%rbp)
    771b:	c5 fa 7f 00          	vmovdqu %xmm0,(%rax)
    771f:	48 89 48 0e          	mov    %rcx,0xe(%rax)
    7723:	48 c7 45 d0 16 00 00 	movq   $0x16,-0x30(%rbp)
    772a:	00 
    772b:	48 c7 45 c8 16 00 00 	movq   $0x16,-0x38(%rbp)
    7732:	00 
    7733:	e8 98 f0 ff ff       	call   67d0 <_ZN20runtime_polymorphism23TestRuntimePolymorphismERKNSt7__cxx1112basic_stringIcSt11char_traitsIcESaIcEEEmRNS_11RuntimeBaseE>
    7738:	48 8b 7d c0          	mov    -0x40(%rbp),%rdi
    773c:	4c 39 e7             	cmp    %r12,%rdi
    773f:	74 0d                	je     774e <_ZN18polymorphism_tests20TestRuntimeExpensiveEm+0x8e>
    7741:	48 8b 45 d0          	mov    -0x30(%rbp),%rax
    7745:	48 8d 70 01          	lea    0x1(%rax),%rsi
    7749:	e8 72 bb ff ff       	call   32c0 <_ZdlPvm@plt>
    774e:	48 83 c4 38          	add    $0x38,%rsp
    7752:	5b                   	pop    %rbx
    7753:	41 5c                	pop    %r12
    7755:	41 5d                	pop    %r13
    7757:	5d                   	pop    %rbp
    7758:	c3                   	ret
    7759:	48 89 c3             	mov    %rax,%rbx
    775c:	e9 02 c0 ff ff       	jmp    3763 <_ZN18polymorphism_tests20TestRuntimeExpensiveEm.cold>
    7761:	66 66 2e 0f 1f 84 00 	data16 cs nopw 0x0(%rax,%rax,1)
    7768:	00 00 00 00 
    776c:	0f 1f 40 00          	nopl   0x0(%rax)

0000000000007770 <_ZN18polymorphism_tests11TestCRTPFMAEm>:
    7770:	55                   	push   %rbp
    7771:	48 89 e5             	mov    %rsp,%rbp
    7774:	41 55                	push   %r13
    7776:	41 54                	push   %r12
    7778:	53                   	push   %rbx
--
    7a69:	48 8d 05 b0 fb ff ff 	lea    -0x450(%rip),%rax        # 7620 <_ZN18polymorphism_tests14TestRuntimeFMAEm>
    7a70:	c7 85 23 fa ff ff 74 	movl   $0x656d6974,-0x5dd(%rbp)
    7a77:	69 6d 65 
    7a7a:	48 89 85 50 fb ff ff 	mov    %rax,-0x4b0(%rbp)
    7a81:	48 8d 85 40 fb ff ff 	lea    -0x4c0(%rbp),%rax
    7a88:	48 c7 85 18 fa ff ff 	movq   $0x7,-0x5e8(%rbp)
    7a8f:	07 00 00 00 
    7a93:	c6 85 27 fa ff ff 00 	movb   $0x0,-0x5d9(%rbp)
    7a9a:	66 44 89 bd 40 fa ff 	mov    %r15w,-0x5c0(%rbp)
    7aa1:	ff 
    7aa2:	c6 85 42 fa ff ff 61 	movb   $0x61,-0x5be(%rbp)
    7aa9:	48 c7 85 38 fa ff ff 	movq   $0x3,-0x5c8(%rbp)
    7ab0:	03 00 00 00 
    7ab4:	c6 85 43 fa ff ff 00 	movb   $0x0,-0x5bd(%rbp)
    7abb:	48 89 85 e0 f9 ff ff 	mov    %rax,-0x620(%rbp)
    7ac2:	48 89 85 30 fb ff ff 	mov    %rax,-0x4d0(%rbp)
    7ac9:	e8 e2 b7 ff ff       	call   32b0 <_Znwm@plt>
    7ace:	c5 f9 6f 05 7a 4b 00 	vmovdqa 0x4b7a(%rip),%xmm0        # c650 <_ZTSN20runtime_polymorphism13PolyExpensiveE+0x110>
    7ad5:	00 
    7ad6:	48 8b 9d 38 fa ff ff 	mov    -0x5c8(%rbp),%rbx
    7add:	41 be 4d 41 00 00    	mov    $0x414d,%r14d
    7ae3:	4c 8d a5 20 fd ff ff 	lea    -0x2e0(%rbp),%r12
    7aea:	66 44 89 70 20       	mov    %r14w,0x20(%rax)
    7aef:	4c 8b b5 30 fa ff ff 	mov    -0x5d0(%rbp),%r14
    7af6:	c5 fa 7f 00          	vmovdqu %xmm0,(%rax)
    7afa:	c5 f9 6f 05 5e 4b 00 	vmovdqa 0x4b5e(%rip),%xmm0        # c660 <_ZTSN20runtime_polymorphism13PolyExpensiveE+0x120>
    7b01:	00 
    7b02:	48 89 85 30 fb ff ff 	mov    %rax,-0x4d0(%rbp)
    7b09:	48 c7 85 40 fb ff ff 	movq   $0x22,-0x4c0(%rbp)
    7b10:	22 00 00 00 
    7b14:	48 c7 85 38 fb ff ff 	movq   $0x22,-0x4c8(%rbp)
    7b1b:	22 00 00 00 
    7b1f:	c6 40 22 00          	movb   $0x0,0x22(%rax)
    7b23:	4c 89 a5 10 fd ff ff 	mov    %r12,-0x2f0(%rbp)
    7b2a:	c5 fa 7f 40 10       	vmovdqu %xmm0,0x10(%rax)
    7b2f:	48 83 fb 0f          	cmp    $0xf,%rbx
    7b33:	0f 87 af 0c 00 00    	ja     87e8 <_ZN11test_runner14GetTestCaseMapB5cxx11Ev+0xe18>
    7b39:	48 83 fb 01          	cmp    $0x1,%rbx
    7b3d:	0f 85 25 0c 00 00    	jne    8768 <_ZN11test_runner14GetTestCaseMapB5cxx11Ev+0xd98>
    7b43:	41 0f b6 06          	movzbl (%r14),%eax
    7b47:	88 85 20 fd ff ff    	mov    %al,-0x2e0(%rbp)
    7b4d:	4c 89 e0             	mov    %r12,%rax
    7b50:	48 89 9d 18 fd ff ff 	mov    %rbx,-0x2e8(%rbp)
    7b57:	48 8d bd 40 fd ff ff 	lea    -0x2c0(%rbp),%rdi
    7b5e:	c6 04 18 00          	movb   $0x0,(%rax,%rbx,1)
    7b62:	48 8b 9d 38 fb ff ff 	mov    -0x4c8(%rbp),%rbx
    7b69:	48 89 bd 30 fd ff ff 	mov    %rdi,-0x2d0(%rbp)
    7b70:	4c 8b b5 30 fb ff ff 	mov    -0x4d0(%rbp),%r14
    7b77:	48 83 fb 0f          	cmp    $0xf,%rbx
    7b7b:	0f 87 cf 0c 00 00    	ja     8850 <_ZN11test_runner14GetTestCaseMapB5cxx11Ev+0xe80>
    7b81:	48 83 fb 01          	cmp    $0x1,%rbx
    7b85:	0f 85 95 0c 00 00    	jne    8820 <_ZN11test_runner14GetTestCaseMapB5cxx11Ev+0xe50>
    7b8b:	41 0f b6 06          	movzbl (%r14),%eax
    7b8f:	88 85 40 fd ff ff    	mov    %al,-0x2c0(%rbp)
    7b95:	48 89 9d 38 fd ff ff 	mov    %rbx,-0x2c8(%rbp)
    7b9c:	c6 04 1f 00          	movb   $0x0,(%rdi,%rbx,1)
    7ba0:	48 8b 85 50 fb ff ff 	mov    -0x4b0(%rbp),%rax
    7ba7:	bf 29 00 00 00       	mov    $0x29,%edi
    7bac:	c6 85 68 fa ff ff 65 	movb   $0x65,-0x598(%rbp)
    7bb3:	48 89 85 50 fd ff ff 	mov    %rax,-0x2b0(%rbp)
    7bba:	48 8d 85 60 fa ff ff 	lea    -0x5a0(%rbp),%rax
