0000000000007690 <_ZN18polymorphism_tests17TestCRTPExpensiveEm>:
    7690:	41 54                	push   %r12
    7692:	55                   	push   %rbp
    7693:	53                   	push   %rbx
    7694:	48 89 fb             	mov    %rdi,%rbx
    7697:	bf 17 00 00 00       	mov    $0x17,%edi
    769c:	48 83 ec 30          	sub    $0x30,%rsp
    76a0:	48 8d 6c 24 20       	lea    0x20(%rsp),%rbp
    76a5:	4c 8d 64 24 10       	lea    0x10(%rsp),%r12
    76aa:	48 89 6c 24 10       	mov    %rbp,0x10(%rsp)
    76af:	e8 fc bb ff ff       	call   32b0 <_Znwm@plt>
    76b4:	48 8d 54 24 0f       	lea    0xf(%rsp),%rdx
    76b9:	48 89 de             	mov    %rbx,%rsi
    76bc:	4c 89 e7             	mov    %r12,%rdi
    76bf:	c5 f9 6f 05 29 3f 00 	vmovdqa 0x3f29(%rip),%xmm0        # b5f0 <_ZTSN20runtime_polymorphism13PolyExpensiveE+0xb0>
    76c6:	00 
    76c7:	c6 40 16 00          	movb   $0x0,0x16(%rax)
    76cb:	48 b9 75 74 61 74 69 	movabs $0x3a6e6f6974617475,%rcx
    76d2:	6f 6e 3a 
    76d5:	48 89 44 24 10       	mov    %rax,0x10(%rsp)
    76da:	c5 fa 7f 00          	vmovdqu %xmm0,(%rax)
    76de:	48 89 48 0e          	mov    %rcx,0xe(%rax)
    76e2:	48 c7 44 24 20 16 00 	movq   $0x16,0x20(%rsp)
    76e9:	00 00 
    76eb:	48 c7 44 24 18 16 00 	movq   $0x16,0x18(%rsp)
    76f2:	00 00 
    76f4:	e8 77 f5 ff ff       	call   6c70 <_ZN17crtp_polymorphism20TestCRTPPolymorphismINS_13PolyExpensiveEEEvRKNSt7__cxx1112basic_stringIcSt11char_traitsIcESaIcEEEmRT_>
    76f9:	48 8b 7c 24 10       	mov    0x10(%rsp),%rdi
    76fe:	48 39 ef             	cmp    %rbp,%rdi
    7701:	74 0e                	je     7711 <_ZN18polymorphism_tests17TestCRTPExpensiveEm+0x81>
    7703:	48 8b 44 24 20       	mov    0x20(%rsp),%rax
    7708:	48 8d 70 01          	lea    0x1(%rax),%rsi
    770c:	e8 af bb ff ff       	call   32c0 <_ZdlPvm@plt>
    7711:	48 83 c4 30          	add    $0x30,%rsp
    7715:	5b                   	pop    %rbx
    7716:	5d                   	pop    %rbp
    7717:	41 5c                	pop    %r12
    7719:	c3                   	ret
    771a:	48 89 c3             	mov    %rax,%rbx
    771d:	e9 95 c0 ff ff       	jmp    37b7 <_ZN18polymorphism_tests17TestCRTPExpensiveEm.cold>
    7722:	66 66 2e 0f 1f 84 00 	data16 cs nopw 0x0(%rax,%rax,1)
    7729:	00 00 00 00 
    772d:	0f 1f 00             	nopl   (%rax)



    0000000000006c70 <_ZN17crtp_polymorphism20TestCRTPPolymorphismINS_13PolyExpensiveEEEvRKNSt7__cxx1112basic_stringIcSt11char_traitsIcESaIcEEEmRT_>:
    6c70:	41 57                	push   %r15
    6c72:	41 56                	push   %r14
    6c74:	41 55                	push   %r13
    6c76:	41 54                	push   %r12
    6c78:	55                   	push   %rbp
    6c79:	53                   	push   %rbx
    6c7a:	48 89 f3             	mov    %rsi,%rbx
    6c7d:	48 83 ec 38          	sub    $0x38,%rsp
    6c81:	48 8b 6f 08          	mov    0x8(%rdi),%rbp
    6c85:	4c 8b 2f             	mov    (%rdi),%r13
    6c88:	4c 8d 64 24 20       	lea    0x20(%rsp),%r12
    6c8d:	4c 89 64 24 10       	mov    %r12,0x10(%rsp)
    6c92:	48 83 fd 0f          	cmp    $0xf,%rbp
    6c96:	0f 87 14 01 00 00    	ja     6db0 <_ZN17crtp_polymorphism20TestCRTPPolymorphismINS_13PolyExpensiveEEEvRKNSt7__cxx1112basic_stringIcSt11char_traitsIcESaIcEEEmRT_+0x140>
    6c9c:	48 83 fd 01          	cmp    $0x1,%rbp
    6ca0:	0f 85 fa 00 00 00    	jne    6da0 <_ZN17crtp_polymorphism20TestCRTPPolymorphismINS_13PolyExpensiveEEEvRKNSt7__cxx1112basic_stringIcSt11char_traitsIcESaIcEEEmRT_+0x130>
    6ca6:	41 0f b6 45 00       	movzbl 0x0(%r13),%eax
    6cab:	88 44 24 20          	mov    %al,0x20(%rsp)
    6caf:	4c 89 e0             	mov    %r12,%rax
    6cb2:	48 89 6c 24 18       	mov    %rbp,0x18(%rsp)
    6cb7:	c6 04 28 00          	movb   $0x0,(%rax,%rbp,1)
    6cbb:	48 8b 6c 24 18       	mov    0x18(%rsp),%rbp
    6cc0:	48 b8 ff ff ff ff ff 	movabs $0x7fffffffffffffff,%rax
    6cc7:	ff ff 7f 
    6cca:	48 29 e8             	sub    %rbp,%rax
    6ccd:	48 83 f8 11          	cmp    $0x11,%rax
    6cd1:	0f 86 c9 01 00 00    	jbe    6ea0 <_ZN17crtp_polymorphism20TestCRTPPolymorphismINS_13PolyExpensiveEEEvRKNSt7__cxx1112basic_stringIcSt11char_traitsIcESaIcEEEmRT_+0x230>
    6cd7:	48 8b 44 24 10       	mov    0x10(%rsp),%rax
    6cdc:	4c 8d 6d 12          	lea    0x12(%rbp),%r13
    6ce0:	4c 39 e0             	cmp    %r12,%rax
    6ce3:	0f 84 9f 01 00 00    	je     6e88 <_ZN17crtp_polymorphism20TestCRTPPolymorphismINS_13PolyExpensiveEEEvRKNSt7__cxx1112basic_stringIcSt11char_traitsIcESaIcEEEmRT_+0x218>
    6ce9:	4c 8b 74 24 20       	mov    0x20(%rsp),%r14
    6cee:	4d 39 ee             	cmp    %r13,%r14
    6cf1:	0f 82 f9 00 00 00    	jb     6df0 <_ZN17crtp_polymorphism20TestCRTPPolymorphismINS_13PolyExpensiveEEEvRKNSt7__cxx1112basic_stringIcSt11char_traitsIcESaIcEEEmRT_+0x180>
    6cf7:	48 01 e8             	add    %rbp,%rax
    6cfa:	c5 f9 6f 05 ae 48 00 	vmovdqa 0x48ae(%rip),%xmm0        # b5b0 <_ZTSN20runtime_polymorphism13PolyExpensiveE+0x70>
    6d01:	00 
    6d02:	b9 73 6d 00 00       	mov    $0x6d73,%ecx
    6d07:	66 89 48 10          	mov    %cx,0x10(%rax)
    6d0b:	c5 fa 7f 00          	vmovdqu %xmm0,(%rax)
    6d0f:	4c 8b 7c 24 10       	mov    0x10(%rsp),%r15
    6d14:	4c 89 6c 24 18       	mov    %r13,0x18(%rsp)
    6d19:	41 c6 44 2f 12 00    	movb   $0x0,0x12(%r15,%rbp,1)
    6d1f:	e8 2c c3 ff ff       	call   3050 <_ZNSt6chrono3_V212system_clock3nowEv@plt>
    6d24:	c5 f9 57 c0          	vxorpd %xmm0,%xmm0,%xmm0
    6d28:	48 89 c5             	mov    %rax,%rbp
    6d2b:	48 85 db             	test   %rbx,%rbx
    6d2e:	74 1d                	je     6d4d <_ZN17crtp_polymorphism20TestCRTPPolymorphismINS_13PolyExpensiveEEEvRKNSt7__cxx1112basic_stringIcSt11char_traitsIcESaIcEEEmRT_+0xdd>
    6d30:	c5 fb 10 0d 70 48 00 	vmovsd 0x4870(%rip),%xmm1        # b5a8 <_ZTSN20runtime_polymorphism13PolyExpensiveE+0x68>
    6d37:	00 
    6d38:	31 d2                	xor    %edx,%edx
    6d3a:	c5 f9 57 c0          	vxorpd %xmm0,%xmm0,%xmm0
    6d3e:	66 90                	xchg   %ax,%ax
    6d40:	48 83 c2 01          	add    $0x1,%rdx
    6d44:	c5 fb 58 c1          	vaddsd %xmm1,%xmm0,%xmm0
    6d48:	48 39 d3             	cmp    %rdx,%rbx
    6d4b:	75 f3                	jne    6d40 <_ZN17crtp_polymorphism20TestCRTPPolymorphismINS_13PolyExpensiveEEEvRKNSt7__cxx1112basic_stringIcSt11char_traitsIcESaIcEEEmRT_+0xd0>
    6d4d:	c5 fb 11 05 23 87 00 	vmovsd %xmm0,0x8723(%rip)        # f478 <prevent_optimization>
    6d54:	00 
    6d55:	e8 f6 c2 ff ff       	call   3050 <_ZNSt6chrono3_V212system_clock3nowEv@plt>
    6d5a:	c5 f8 57 c0          	vxorps %xmm0,%xmm0,%xmm0
    6d5e:	48 8d 7c 24 10       	lea    0x10(%rsp),%rdi
    6d63:	48 29 e8             	sub    %rbp,%rax
    6d66:	c4 e1 fb 2a c0       	vcvtsi2sd %rax,%xmm0,%xmm0
    6d6b:	c5 fb 5e 05 15 47 00 	vdivsd 0x4715(%rip),%xmm0,%xmm0        # b488 <_IO_stdin_used+0x488>
    6d72:	00 
    6d73:	e8 38 e5 ff ff       	call   52b0 <_Z9PrintTimeRKNSt7__cxx1112basic_stringIcSt11char_traitsIcESaIcEEENSt6chrono8durationIdSt5ratioILl1ELl1EEEE>
    6d78:	48 8b 7c 24 10       	mov    0x10(%rsp),%rdi
    6d7d:	4c 39 e7             	cmp    %r12,%rdi
    6d80:	74 0e                	je     6d90 <_ZN17crtp_polymorphism20TestCRTPPolymorphismINS_13PolyExpensiveEEEvRKNSt7__cxx1112basic_stringIcSt11char_traitsIcESaIcEEEmRT_+0x120>
    6d82:	48 8b 44 24 20       	mov    0x20(%rsp),%rax
    6d87:	48 8d 70 01          	lea    0x1(%rax),%rsi
    6d8b:	e8 30 c5 ff ff       	call   32c0 <_ZdlPvm@plt>
    6d90:	48 83 c4 38          	add    $0x38,%rsp
    6d94:	5b                   	pop    %rbx
    6d95:	5d                   	pop    %rbp
    6d96:	41 5c                	pop    %r12
    6d98:	41 5d                	pop    %r13
    6d9a:	41 5e                	pop    %r14
    6d9c:	41 5f                	pop    %r15
    6d9e:	c3                   	ret
    6d9f:	90                   	nop
    6da0:	48 85 ed             	test   %rbp,%rbp
    6da3:	0f 84 06 ff ff ff    	je     6caf <_ZN17crtp_polymorphism20TestCRTPPolymorphismINS_13PolyExpensiveEEEvRKNSt7__cxx1112basic_stringIcSt11char_traitsIcESaIcEEEmRT_+0x3f>
    6da9:	4c 89 e7             	mov    %r12,%rdi
    6dac:	eb 2a                	jmp    6dd8 <_ZN17crtp_polymorphism20TestCRTPPolymorphismINS_13PolyExpensiveEEEvRKNSt7__cxx1112basic_stringIcSt11char_traitsIcESaIcEEEmRT_+0x168>
    6dae:	66 90                	xchg   %ax,%ax
    6db0:	48 85 ed             	test   %rbp,%rbp
    6db3:	0f 88 ff 00 00 00    	js     6eb8 <_ZN17crtp_polymorphism20TestCRTPPolymorphismINS_13PolyExpensiveEEEvRKNSt7__cxx1112basic_stringIcSt11char_traitsIcESaIcEEEmRT_+0x248>
    6db9:	48 89 ef             	mov    %rbp,%rdi
    6dbc:	48 83 c7 01          	add    $0x1,%rdi
    6dc0:	0f 88 d5 00 00 00    	js     6e9b <_ZN17crtp_polymorphism20TestCRTPPolymorphismINS_13PolyExpensiveEEEvRKNSt7__cxx1112basic_stringIcSt11char_traitsIcESaIcEEEmRT_+0x22b>
    6dc6:	e8 e5 c4 ff ff       	call   32b0 <_Znwm@plt>
    6dcb:	48 89 6c 24 20       	mov    %rbp,0x20(%rsp)
    6dd0:	48 89 44 24 10       	mov    %rax,0x10(%rsp)
    6dd5:	48 89 c7             	mov    %rax,%rdi
    6dd8:	48 89 ea             	mov    %rbp,%rdx
    6ddb:	4c 89 ee             	mov    %r13,%rsi
    6dde:	e8 8d c4 ff ff       	call   3270 <memcpy@plt>
    6de3:	48 8b 44 24 10       	mov    0x10(%rsp),%rax
    6de8:	e9 c5 fe ff ff       	jmp    6cb2 <_ZN17crtp_polymorphism20TestCRTPPolymorphismINS_13PolyExpensiveEEEvRKNSt7__cxx1112basic_stringIcSt11char_traitsIcESaIcEEEmRT_+0x42>
    6ded:	0f 1f 00             	nopl   (%rax)
    6df0:	4d 85 ed             	test   %r13,%r13
    6df3:	0f 88 b3 00 00 00    	js     6eac <_ZN17crtp_polymorphism20TestCRTPPolymorphismINS_13PolyExpensiveEEEvRKNSt7__cxx1112basic_stringIcSt11char_traitsIcESaIcEEEmRT_+0x23c>
    6df9:	4d 01 f6             	add    %r14,%r14
    6dfc:	4d 39 f5             	cmp    %r14,%r13
    6dff:	72 7a                	jb     6e7b <_ZN17crtp_polymorphism20TestCRTPPolymorphismINS_13PolyExpensiveEEEvRKNSt7__cxx1112basic_stringIcSt11char_traitsIcESaIcEEEmRT_+0x20b>
    6e01:	4d 89 ee             	mov    %r13,%r14
    6e04:	4c 89 f7             	mov    %r14,%rdi
    6e07:	48 83 c7 01          	add    $0x1,%rdi
    6e0b:	78 73                	js     6e80 <_ZN17crtp_polymorphism20TestCRTPPolymorphismINS_13PolyExpensiveEEEvRKNSt7__cxx1112basic_stringIcSt11char_traitsIcESaIcEEEmRT_+0x210>
    6e0d:	e8 9e c4 ff ff       	call   32b0 <_Znwm@plt>
    6e12:	48 8b 4c 24 10       	mov    0x10(%rsp),%rcx
    6e17:	49 89 c7             	mov    %rax,%r15
    6e1a:	48 85 ed             	test   %rbp,%rbp
    6e1d:	74 1e                	je     6e3d <_ZN17crtp_polymorphism20TestCRTPPolymorphismINS_13PolyExpensiveEEEvRKNSt7__cxx1112basic_stringIcSt11char_traitsIcESaIcEEEmRT_+0x1cd>
    6e1f:	48 83 fd 01          	cmp    $0x1,%rbp
    6e23:	74 6e                	je     6e93 <_ZN17crtp_polymorphism20TestCRTPPolymorphismINS_13PolyExpensiveEEEvRKNSt7__cxx1112basic_stringIcSt11char_traitsIcESaIcEEEmRT_+0x223>
    6e25:	48 89 ce             	mov    %rcx,%rsi
    6e28:	48 89 ea             	mov    %rbp,%rdx
    6e2b:	48 89 c7             	mov    %rax,%rdi
    6e2e:	48 89 4c 24 08       	mov    %rcx,0x8(%rsp)
    6e33:	e8 38 c4 ff ff       	call   3270 <memcpy@plt>
    6e38:	48 8b 4c 24 08       	mov    0x8(%rsp),%rcx
    6e3d:	c5 f9 6f 05 6b 47 00 	vmovdqa 0x476b(%rip),%xmm0        # b5b0 <_ZTSN20runtime_polymorphism13PolyExpensiveE+0x70>
    6e44:	00 
    6e45:	49 8d 04 2f          	lea    (%r15,%rbp,1),%rax
    6e49:	ba 73 6d 00 00       	mov    $0x6d73,%edx
    6e4e:	66 89 50 10          	mov    %dx,0x10(%rax)
    6e52:	c5 fa 7f 00          	vmovdqu %xmm0,(%rax)
    6e56:	4c 39 e1             	cmp    %r12,%rcx
    6e59:	74 11                	je     6e6c <_ZN17crtp_polymorphism20TestCRTPPolymorphismINS_13PolyExpensiveEEEvRKNSt7__cxx1112basic_stringIcSt11char_traitsIcESaIcEEEmRT_+0x1fc>
    6e5b:	48 8b 44 24 20       	mov    0x20(%rsp),%rax
    6e60:	48 89 cf             	mov    %rcx,%rdi
    6e63:	48 8d 70 01          	lea    0x1(%rax),%rsi
    6e67:	e8 54 c4 ff ff       	call   32c0 <_ZdlPvm@plt>
    6e6c:	4c 89 7c 24 10       	mov    %r15,0x10(%rsp)
    6e71:	4c 89 74 24 20       	mov    %r14,0x20(%rsp)
    6e76:	e9 99 fe ff ff       	jmp    6d14 <_ZN17crtp_polymorphism20TestCRTPPolymorphismINS_13PolyExpensiveEEEvRKNSt7__cxx1112basic_stringIcSt11char_traitsIcESaIcEEEmRT_+0xa4>
    6e7b:	4d 85 f6             	test   %r14,%r14
    6e7e:	79 84                	jns    6e04 <_ZN17crtp_polymorphism20TestCRTPPolymorphismINS_13PolyExpensiveEEEvRKNSt7__cxx1112basic_stringIcSt11char_traitsIcESaIcEEEmRT_+0x194>
    6e80:	e8 5b c2 ff ff       	call   30e0 <_ZSt17__throw_bad_allocv@plt>
    6e85:	0f 1f 00             	nopl   (%rax)
    6e88:	41 be 0f 00 00 00    	mov    $0xf,%r14d
    6e8e:	e9 5b fe ff ff       	jmp    6cee <_ZN17crtp_polymorphism20TestCRTPPolymorphismINS_13PolyExpensiveEEEvRKNSt7__cxx1112basic_stringIcSt11char_traitsIcESaIcEEEmRT_+0x7e>
    6e93:	0f b6 01             	movzbl (%rcx),%eax
    6e96:	41 88 07             	mov    %al,(%r15)
    6e99:	eb a2                	jmp    6e3d <_ZN17crtp_polymorphism20TestCRTPPolymorphismINS_13PolyExpensiveEEEvRKNSt7__cxx1112basic_stringIcSt11char_traitsIcESaIcEEEmRT_+0x1cd>
    6e9b:	e8 40 c2 ff ff       	call   30e0 <_ZSt17__throw_bad_allocv@plt>
    6ea0:	48 8d 3d e9 45 00 00 	lea    0x45e9(%rip),%rdi        # b490 <_IO_stdin_used+0x490>
    6ea7:	e8 a4 c2 ff ff       	call   3150 <_ZSt20__throw_length_errorPKc@plt>
    6eac:	48 8d 3d b8 44 00 00 	lea    0x44b8(%rip),%rdi        # b36b <_IO_stdin_used+0x36b>
    6eb3:	e8 98 c2 ff ff       	call   3150 <_ZSt20__throw_length_errorPKc@plt>
    6eb8:	48 8d 3d ac 44 00 00 	lea    0x44ac(%rip),%rdi        # b36b <_IO_stdin_used+0x36b>
    6ebf:	e8 8c c2 ff ff       	call   3150 <_ZSt20__throw_length_errorPKc@plt>
    6ec4:	48 89 c3             	mov    %rax,%rbx
    6ec7:	eb 02                	jmp    6ecb <_ZN17crtp_polymorphism20TestCRTPPolymorphismINS_13PolyExpensiveEEEvRKNSt7__cxx1112basic_stringIcSt11char_traitsIcESaIcEEEmRT_+0x25b>
    6ec9:	eb f9                	jmp    6ec4 <_ZN17crtp_polymorphism20TestCRTPPolymorphismINS_13PolyExpensiveEEEvRKNSt7__cxx1112basic_stringIcSt11char_traitsIcESaIcEEEmRT_+0x254>
    6ecb:	48 8b 7c 24 10       	mov    0x10(%rsp),%rdi
    6ed0:	4c 39 e7             	cmp    %r12,%rdi
    6ed3:	74 19                	je     6eee <_ZN17crtp_polymorphism20TestCRTPPolymorphismINS_13PolyExpensiveEEEvRKNSt7__cxx1112basic_stringIcSt11char_traitsIcESaIcEEEmRT_+0x27e>
    6ed5:	48 8b 44 24 20       	mov    0x20(%rsp),%rax
    6eda:	48 8d 70 01          	lea    0x1(%rax),%rsi
    6ede:	c5 f8 77             	vzeroupper
    6ee1:	e8 da c3 ff ff       	call   32c0 <_ZdlPvm@plt>
    6ee6:	48 89 df             	mov    %rbx,%rdi
    6ee9:	e8 22 c5 ff ff       	call   3410 <_Unwind_Resume@plt>
    6eee:	c5 f8 77             	vzeroupper
    6ef1:	eb f3                	jmp    6ee6 <_ZN17crtp_polymorphism20TestCRTPPolymorphismINS_13PolyExpensiveEEEvRKNSt7__cxx1112basic_stringIcSt11char_traitsIcESaIcEEEmRT_+0x276>
    6ef3:	66 2e 0f 1f 84 00 00 	cs nopw 0x0(%rax,%rax,1)
    6efa:	00 00 00 
    6efd:	0f 1f 00             	nopl   (%rax)

